target datalayout = "e-m:e-p270:32:32-p271:32:32-p272:64:64-i64:64-i128:128-f80:128-n8:16:32:64-S128"
target triple = "x86_64-pc-linux-gnu"

%struct.strvec = type { ptr, i64, i64 }
%struct.credential_capability = type { i8, [3 x i8] }
%struct.strbuf = type { i64, i64, ptr }
%struct.credential = type { %struct.string_list, %struct.strvec, %struct.strvec, %struct.strvec, i16, [2 x i8], %struct.credential_capability, %struct.credential_capability, ptr, ptr, ptr, ptr, ptr, ptr, ptr, i64, ptr }
%struct.string_list = type { ptr, i64, i64, i8, ptr }

@__const.http_append_auth_header.auth = private unnamed_addr constant %struct.strbuf { i64 0, i64 0, ptr @strbuf_slopbuf }, align 8
@.str.3 = private unnamed_addr constant [21 x i8] c"Authorization: %s %s\00", align 1

; Function Attrs: nounwind uwtable
define dso_local ptr @http_append_auth_header(ptr noundef %0, ptr noundef %1) #0 {
  %3 = alloca ptr, align 8
  %4 = alloca ptr, align 8
  %5 = alloca %struct.strbuf, align 8
  store ptr %0, ptr %3, align 8, !tbaa !23
  store ptr %1, ptr %4, align 8, !tbaa !25
  %6 = load ptr, ptr %3, align 8, !tbaa !23
  %7 = getelementptr inbounds nuw %struct.credential, ptr %6, i32 0, i32 16
  %8 = load ptr, ptr %7, align 8, !tbaa !27
  %9 = icmp ne ptr %8, null
  br i1 %9, label %10, label %26

10:                                               ; preds = %2
  %11 = load ptr, ptr %3, align 8, !tbaa !23
  %12 = getelementptr inbounds nuw %struct.credential, ptr %11, i32 0, i32 10
  %13 = load ptr, ptr %12, align 8, !tbaa !34
  %14 = icmp ne ptr %13, null
  br i1 %14, label %15, label %26

15:                                               ; preds = %10
  call void @llvm.lifetime.start.p0(i64 24, ptr %5) #11
  call void @llvm.memcpy.p0.p0.i64(ptr align 8 %5, ptr align 8 @__const.http_append_auth_header.auth, i64 24, i1 false)
  %16 = load ptr, ptr %3, align 8, !tbaa !23
  %17 = getelementptr inbounds nuw %struct.credential, ptr %16, i32 0, i32 16
  %18 = load ptr, ptr %17, align 8, !tbaa !27
  %19 = load ptr, ptr %3, align 8, !tbaa !23
  %20 = getelementptr inbounds nuw %struct.credential, ptr %19, i32 0, i32 10
  %21 = load ptr, ptr %20, align 8, !tbaa !34
  call void (ptr, ptr, ...) @strbuf_addf(ptr noundef %5, ptr noundef @.str.3, ptr noundef %18, ptr noundef %21)
  %22 = load ptr, ptr %4, align 8, !tbaa !25
  %23 = getelementptr inbounds nuw %struct.strbuf, ptr %5, i32 0, i32 2
  %24 = load ptr, ptr %23, align 8, !tbaa !35
  %25 = call ptr @curl_slist_append(ptr noundef %22, ptr noundef %24)
  store ptr %25, ptr %4, align 8, !tbaa !25
  call void @strbuf_release(ptr noundef %5)
  call void @llvm.lifetime.end.p0(i64 24, ptr %5) #11
  br label %26

26:                                               ; preds = %15, %10, %2
  %27 = load ptr, ptr %4, align 8, !tbaa !25
  ret ptr %27
}