; Function Attrs: nounwind uwtable
define dso_local ptr @http_append_auth_header(ptr noundef readonly captures(none) %0, ptr noundef %1) local_unnamed_addr #3 {
  %3 = alloca %struct.strbuf, align 8
  %4 = getelementptr inbounds nuw i8, ptr %0, i64 192
  %5 = load ptr, ptr %4, align 8, !tbaa !14
  %.not = icmp eq ptr %5, null
  br i1 %.not, label %13, label %6

6:                                                ; preds = %2
  %7 = getelementptr inbounds nuw i8, ptr %0, i64 144
  %8 = load ptr, ptr %7, align 8, !tbaa !22
  %.not6 = icmp eq ptr %8, null
  br i1 %.not6, label %13, label %9

9:                                                ; preds = %6
  call void @llvm.lifetime.start.p0(i64 24, ptr nonnull %3) #22
  call void @llvm.memcpy.p0.p0.i64(ptr noundef nonnull align 8 dereferenceable(24) %3, ptr noundef nonnull align 8 dereferenceable(24) @__const.fetch_pack_index.buf, i64 24, i1 false)
  call void (ptr, ptr, ...) @strbuf_addf(ptr noundef nonnull %3, ptr noundef nonnull @.str.3, ptr noundef nonnull %5, ptr noundef nonnull %8) #22
  %10 = getelementptr inbounds nuw i8, ptr %3, i64 16
  %11 = load ptr, ptr %10, align 8, !tbaa !23
  %12 = call ptr @curl_slist_append(ptr noundef %1, ptr noundef %11) #22
  call void @strbuf_release(ptr noundef nonnull %3) #22
  call void @llvm.lifetime.end.p0(i64 24, ptr nonnull %3) #22
  br label %13

13:                                               ; preds = %9, %6, %2
  %.0 = phi ptr [ %12, %9 ], [ %1, %6 ], [ %1, %2 ]
  ret ptr %.0
}